target datalayout = "e-m:e-p270:32:32-p271:32:32-p272:64:64-i64:64-i128:128-f80:128-n8:16:32:64-S128"
target triple = "x86_64-pc-linux-gnu"

%struct.ReorderBuffer = type { ptr, %struct.dlist_head, %struct.dlist_head, %struct.dclist_head, i32, ptr, ptr, ptr, ptr, ptr, ptr, ptr, ptr, ptr, ptr, ptr, ptr, ptr, ptr, ptr, ptr, ptr, ptr, ptr, ptr, i8, ptr, ptr, ptr, ptr, i64, ptr, i64, i64, ptr, i64, i64, i64, i64, i64, i64, i64, i64 }
%struct.dlist_head = type { %struct.dlist_node }
%struct.dlist_node = type { ptr, ptr }
%struct.dclist_head = type { %struct.dlist_head, i32 }
%struct.ReorderBufferTXN = type { i32, i32, i32, ptr, i64, i64, i64, ptr, i64, i16, i64, %union.anon.4, ptr, i64, %struct.dlist_node, ptr, i32, i64, i64, %struct.dlist_head, %struct.dlist_head, i64, ptr, ptr, %struct.dlist_head, i32, i32, ptr, %struct.dlist_node, %struct.dlist_node, %struct.pairingheap_node, i64, i64, ptr }
%union.anon.4 = type { i64 }
%struct.pairingheap_node = type { ptr, ptr, ptr }
%struct.ReorderBufferTXNByIdEnt = type { i32, ptr }

; Function Attrs: inlinehint nounwind uwtable
define internal void @dlist_init(ptr noundef %0) #4 {
  %2 = alloca ptr, align 8
  store ptr %0, ptr %2, align 8
  %3 = load ptr, ptr %2, align 8
  %4 = getelementptr inbounds nuw %struct.dlist_head, ptr %3, i32 0, i32 0
  %5 = load ptr, ptr %2, align 8
  %6 = getelementptr inbounds nuw %struct.dlist_head, ptr %5, i32 0, i32 0
  %7 = getelementptr inbounds nuw %struct.dlist_node, ptr %6, i32 0, i32 0
  store ptr %4, ptr %7, align 8
  %8 = load ptr, ptr %2, align 8
  %9 = getelementptr inbounds nuw %struct.dlist_head, ptr %8, i32 0, i32 0
  %10 = getelementptr inbounds nuw %struct.dlist_node, ptr %9, i32 0, i32 1
  store ptr %4, ptr %10, align 8
  ret void
}

; Function Attrs: nounwind uwtable
define internal void @AssertTXNLsnOrder(ptr noundef %0) #0 {
  %2 = alloca ptr, align 8
  store ptr %0, ptr %2, align 8
  ret void
}

; Function Attrs: inlinehint nounwind uwtable
define internal void @dlist_push_tail(ptr noundef %0, ptr noundef %1) #4 {
  %3 = alloca ptr, align 8
  %4 = alloca ptr, align 8
  store ptr %0, ptr %3, align 8
  store ptr %1, ptr %4, align 8
  %5 = load ptr, ptr %3, align 8
  %6 = getelementptr inbounds nuw %struct.dlist_head, ptr %5, i32 0, i32 0
  %7 = getelementptr inbounds nuw %struct.dlist_node, ptr %6, i32 0, i32 1
  %8 = load ptr, ptr %7, align 8
  %9 = icmp eq ptr %8, null
  br i1 %9, label %10, label %12

10:                                               ; preds = %2
  %11 = load ptr, ptr %3, align 8
  call void @dlist_init(ptr noundef %11)
  br label %12

12:                                               ; preds = %10, %2
  %13 = load ptr, ptr %3, align 8
  %14 = getelementptr inbounds nuw %struct.dlist_head, ptr %13, i32 0, i32 0
  %15 = load ptr, ptr %4, align 8
  %16 = getelementptr inbounds nuw %struct.dlist_node, ptr %15, i32 0, i32 1
  store ptr %14, ptr %16, align 8
  %17 = load ptr, ptr %3, align 8
  %18 = getelementptr inbounds nuw %struct.dlist_head, ptr %17, i32 0, i32 0
  %19 = getelementptr inbounds nuw %struct.dlist_node, ptr %18, i32 0, i32 0
  %20 = load ptr, ptr %19, align 8
  %21 = load ptr, ptr %4, align 8
  %22 = getelementptr inbounds nuw %struct.dlist_node, ptr %21, i32 0, i32 0
  store ptr %20, ptr %22, align 8
  %23 = load ptr, ptr %4, align 8
  %24 = load ptr, ptr %4, align 8
  %25 = getelementptr inbounds nuw %struct.dlist_node, ptr %24, i32 0, i32 0
  %26 = load ptr, ptr %25, align 8
  %27 = getelementptr inbounds nuw %struct.dlist_node, ptr %26, i32 0, i32 1
  store ptr %23, ptr %27, align 8
  %28 = load ptr, ptr %4, align 8
  %29 = load ptr, ptr %3, align 8
  %30 = getelementptr inbounds nuw %struct.dlist_head, ptr %29, i32 0, i32 0
  %31 = getelementptr inbounds nuw %struct.dlist_node, ptr %30, i32 0, i32 0
  store ptr %28, ptr %31, align 8
  ret void
}

; Function Attrs: nounwind uwtable
define internal ptr @ReorderBufferGetTXN(ptr noundef %0) #0 {
  %2 = alloca ptr, align 8
  %3 = alloca ptr, align 8
  store ptr %0, ptr %2, align 8
  call void @llvm.lifetime.start.p0(i64 8, ptr %3) #13
  %4 = load ptr, ptr %2, align 8
  %5 = getelementptr inbounds nuw %struct.ReorderBuffer, ptr %4, i32 0, i32 28
  %6 = load ptr, ptr %5, align 8
  %7 = call ptr @MemoryContextAlloc(ptr noundef %6, i64 noundef 320)
  store ptr %7, ptr %3, align 8
  %8 = load ptr, ptr %3, align 8
  call void @llvm.memset.p0.i64(ptr align 8 %8, i8 0, i64 320, i1 false)
  %9 = load ptr, ptr %3, align 8
  %10 = getelementptr inbounds nuw %struct.ReorderBufferTXN, ptr %9, i32 0, i32 19
  call void @dlist_init(ptr noundef %10)
  %11 = load ptr, ptr %3, align 8
  %12 = getelementptr inbounds nuw %struct.ReorderBufferTXN, ptr %11, i32 0, i32 20
  call void @dlist_init(ptr noundef %12)
  %13 = load ptr, ptr %3, align 8
  %14 = getelementptr inbounds nuw %struct.ReorderBufferTXN, ptr %13, i32 0, i32 24
  call void @dlist_init(ptr noundef %14)
  %15 = load ptr, ptr %3, align 8
  %16 = getelementptr inbounds nuw %struct.ReorderBufferTXN, ptr %15, i32 0, i32 16
  store i32 -1, ptr %16, align 8
  %17 = load ptr, ptr %3, align 8
  %18 = getelementptr inbounds nuw %struct.ReorderBufferTXN, ptr %17, i32 0, i32 33
  store ptr null, ptr %18, align 8
  %19 = load ptr, ptr %3, align 8
  call void @llvm.lifetime.end.p0(i64 8, ptr %3) #13
  ret ptr %19
}

; Function Attrs: nounwind uwtable
define internal ptr @ReorderBufferTXNByXid(ptr noundef %0, i32 noundef %1, i1 noundef zeroext %2, ptr noundef %3, i64 noundef %4, i1 noundef zeroext %5) #0 {
  %7 = alloca ptr, align 8
  %8 = alloca ptr, align 8
  %9 = alloca i32, align 4
  %10 = alloca i8, align 1
  %11 = alloca ptr, align 8
  %12 = alloca i64, align 8
  %13 = alloca i8, align 1
  %14 = alloca ptr, align 8
  %15 = alloca ptr, align 8
  %16 = alloca i8, align 1
  %17 = alloca i32, align 4
  store ptr %0, ptr %8, align 8
  store i32 %1, ptr %9, align 4
  %18 = zext i1 %2 to i8
  store i8 %18, ptr %10, align 1
  store ptr %3, ptr %11, align 8
  store i64 %4, ptr %12, align 8
  %19 = zext i1 %5 to i8
  store i8 %19, ptr %13, align 1
  call void @llvm.lifetime.start.p0(i64 8, ptr %14) #13
  call void @llvm.lifetime.start.p0(i64 8, ptr %15) #13
  call void @llvm.lifetime.start.p0(i64 1, ptr %16) #13
  %20 = load ptr, ptr %8, align 8
  %21 = getelementptr inbounds nuw %struct.ReorderBuffer, ptr %20, i32 0, i32 4
  %22 = load i32, ptr %21, align 8
  %23 = icmp ne i32 %22, 0
  br i1 %23, label %24, label %48

24:                                               ; preds = %6
  %25 = load ptr, ptr %8, align 8
  %26 = getelementptr inbounds nuw %struct.ReorderBuffer, ptr %25, i32 0, i32 4
  %27 = load i32, ptr %26, align 8
  %28 = load i32, ptr %9, align 4
  %29 = icmp eq i32 %27, %28
  br i1 %29, label %30, label %48

30:                                               ; preds = %24
  %31 = load ptr, ptr %8, align 8
  %32 = getelementptr inbounds nuw %struct.ReorderBuffer, ptr %31, i32 0, i32 5
  %33 = load ptr, ptr %32, align 8
  store ptr %33, ptr %14, align 8
  %34 = load ptr, ptr %14, align 8
  %35 = icmp ne ptr %34, null
  br i1 %35, label %36, label %43

36:                                               ; preds = %30
  %37 = load ptr, ptr %11, align 8
  %38 = icmp ne ptr %37, null
  br i1 %38, label %39, label %41

39:                                               ; preds = %36
  %40 = load ptr, ptr %11, align 8
  store i8 0, ptr %40, align 1
  br label %41

41:                                               ; preds = %39, %36
  %42 = load ptr, ptr %14, align 8
  store ptr %42, ptr %7, align 8
  store i32 1, ptr %17, align 4
  br label %114

43:                                               ; preds = %30
  %44 = load i8, ptr %10, align 1, !range !6, !noundef !7
  %45 = trunc i8 %44 to i1
  br i1 %45, label %47, label %46

46:                                               ; preds = %43
  store ptr null, ptr %7, align 8
  store i32 1, ptr %17, align 4
  br label %114

47:                                               ; preds = %43
  br label %48

48:                                               ; preds = %47, %24, %6
  %49 = load ptr, ptr %8, align 8
  %50 = getelementptr inbounds nuw %struct.ReorderBuffer, ptr %49, i32 0, i32 0
  %51 = load ptr, ptr %50, align 8
  %52 = load i8, ptr %10, align 1, !range !6, !noundef !7
  %53 = trunc i8 %52 to i1
  %54 = select i1 %53, i32 1, i32 0
  %55 = call ptr @hash_search(ptr noundef %51, ptr noundef %9, i32 noundef %54, ptr noundef %16)
  store ptr %55, ptr %15, align 8
  %56 = load i8, ptr %16, align 1, !range !6, !noundef !7
  %57 = trunc i8 %56 to i1
  br i1 %57, label %58, label %62

58:                                               ; preds = %48
  %59 = load ptr, ptr %15, align 8
  %60 = getelementptr inbounds nuw %struct.ReorderBufferTXNByIdEnt, ptr %59, i32 0, i32 1
  %61 = load ptr, ptr %60, align 8
  store ptr %61, ptr %14, align 8
  br label %97

62:                                               ; preds = %48
  %63 = load i8, ptr %10, align 1, !range !6, !noundef !7
  %64 = trunc i8 %63 to i1
  br i1 %64, label %65, label %95

65:                                               ; preds = %62
  %66 = load ptr, ptr %8, align 8
  %67 = call ptr @ReorderBufferGetTXN(ptr noundef %66)
  %68 = load ptr, ptr %15, align 8
  %69 = getelementptr inbounds nuw %struct.ReorderBufferTXNByIdEnt, ptr %68, i32 0, i32 1
  store ptr %67, ptr %69, align 8
  %70 = load i32, ptr %9, align 4
  %71 = load ptr, ptr %15, align 8
  %72 = getelementptr inbounds nuw %struct.ReorderBufferTXNByIdEnt, ptr %71, i32 0, i32 1
  %73 = load ptr, ptr %72, align 8
  %74 = getelementptr inbounds nuw %struct.ReorderBufferTXN, ptr %73, i32 0, i32 1
  store i32 %70, ptr %74, align 4
  %75 = load ptr, ptr %15, align 8
  %76 = getelementptr inbounds nuw %struct.ReorderBufferTXNByIdEnt, ptr %75, i32 0, i32 1
  %77 = load ptr, ptr %76, align 8
  store ptr %77, ptr %14, align 8
  %78 = load i64, ptr %12, align 8
  %79 = load ptr, ptr %14, align 8
  %80 = getelementptr inbounds nuw %struct.ReorderBufferTXN, ptr %79, i32 0, i32 4
  store i64 %78, ptr %80, align 8
  %81 = load ptr, ptr %8, align 8
  %82 = getelementptr inbounds nuw %struct.ReorderBuffer, ptr %81, i32 0, i32 30
  %83 = load i64, ptr %82, align 8
  %84 = load ptr, ptr %14, align 8
  %85 = getelementptr inbounds nuw %struct.ReorderBufferTXN, ptr %84, i32 0, i32 8
  store i64 %83, ptr %85, align 8
  %86 = load i8, ptr %13, align 1, !range !6, !noundef !7
  %87 = trunc i8 %86 to i1
  br i1 %87, label %88, label %94

88:                                               ; preds = %65
  %89 = load ptr, ptr %8, align 8
  %90 = getelementptr inbounds nuw %struct.ReorderBuffer, ptr %89, i32 0, i32 1
  %91 = load ptr, ptr %14, align 8
  %92 = getelementptr inbounds nuw %struct.ReorderBufferTXN, ptr %91, i32 0, i32 28
  call void @dlist_push_tail(ptr noundef %90, ptr noundef %92)
  %93 = load ptr, ptr %8, align 8
  call void @AssertTXNLsnOrder(ptr noundef %93)
  br label %94

94:                                               ; preds = %88, %65
  br label %96

95:                                               ; preds = %62
  store ptr null, ptr %14, align 8
  br label %96

96:                                               ; preds = %95, %94
  br label %97

97:                                               ; preds = %96, %58
  %98 = load i32, ptr %9, align 4
  %99 = load ptr, ptr %8, align 8
  %100 = getelementptr inbounds nuw %struct.ReorderBuffer, ptr %99, i32 0, i32 4
  store i32 %98, ptr %100, align 8
  %101 = load ptr, ptr %14, align 8
  %102 = load ptr, ptr %8, align 8
  %103 = getelementptr inbounds nuw %struct.ReorderBuffer, ptr %102, i32 0, i32 5
  store ptr %101, ptr %103, align 8
  %104 = load ptr, ptr %11, align 8
  %105 = icmp ne ptr %104, null
  br i1 %105, label %106, label %112

106:                                              ; preds = %97
  %107 = load i8, ptr %16, align 1, !range !6, !noundef !7
  %108 = trunc i8 %107 to i1
  %109 = xor i1 %108, true
  %110 = load ptr, ptr %11, align 8
  %111 = zext i1 %109 to i8
  store i8 %111, ptr %110, align 1
  br label %112

112:                                              ; preds = %106, %97
  %113 = load ptr, ptr %14, align 8
  store ptr %113, ptr %7, align 8
  store i32 1, ptr %17, align 4
  br label %114

114:                                              ; preds = %112, %46, %41
  call void @llvm.lifetime.end.p0(i64 1, ptr %16) #13
  call void @llvm.lifetime.end.p0(i64 8, ptr %15) #13
  call void @llvm.lifetime.end.p0(i64 8, ptr %14) #13
  %115 = load ptr, ptr %7, align 8
  ret ptr %115
}

; Function Attrs: nounwind uwtable
define dso_local zeroext i1 @ReorderBufferXidHasCatalogChanges(ptr noundef %0, i32 noundef %1) #0 {
  %3 = alloca i1, align 1
  %4 = alloca ptr, align 8
  %5 = alloca i32, align 4
  %6 = alloca ptr, align 8
  %7 = alloca i32, align 4
  store ptr %0, ptr %4, align 8
  store i32 %1, ptr %5, align 4
  call void @llvm.lifetime.start.p0(i64 8, ptr %6) #13
  %8 = load ptr, ptr %4, align 8
  %9 = load i32, ptr %5, align 4
  %10 = call ptr @ReorderBufferTXNByXid(ptr noundef %8, i32 noundef %9, i1 noundef zeroext false, ptr noundef null, i64 noundef 0, i1 noundef zeroext false)
  store ptr %10, ptr %6, align 8
  %11 = load ptr, ptr %6, align 8
  %12 = icmp eq ptr %11, null
  br i1 %12, label %13, label %14

13:                                               ; preds = %2
  store i1 false, ptr %3, align 1
  store i32 1, ptr %7, align 4
  br label %20

14:                                               ; preds = %2
  %15 = load ptr, ptr %6, align 8
  %16 = getelementptr inbounds nuw %struct.ReorderBufferTXN, ptr %15, i32 0, i32 0
  %17 = load i32, ptr %16, align 8
  %18 = and i32 %17, 1
  %19 = icmp ne i32 %18, 0
  store i1 %19, ptr %3, align 1
  store i32 1, ptr %7, align 4
  br label %20

20:                                               ; preds = %14, %13
  call void @llvm.lifetime.end.p0(i64 8, ptr %6) #13
  %21 = load i1, ptr %3, align 1
  ret i1 %21
}